(dp0
S'METTS MARK'
p1
(dp2
S'salary'
p3
I365788
sS'to_messages'
p4
I807
sS'deferral_payments'
p5
S'NaN'
p6
sS'total_payments'
p7
I1061827
sS'exercised_stock_options'
p8
S'NaN'
p9
sS'bonus'
p10
I600000
sS'restricted_stock'
p11
I585062
sS'shared_receipt_with_poi'
p12
I702
sS'restricted_stock_deferred'
p13
g6
sS'total_stock_value'
p14
I585062
sS'expenses'
p15
I94299
sS'loan_advances'
p16
g9
sS'from_messages'
p17
I29
sS'other'
p18
I1740
sS'from_this_person_to_poi'
p19
I1
sS'poi'
p20
I00
sS'director_fees'
p21
g9
sS'deferred_income'
p22
g9
sS'long_term_incentive'
p23
g6
sS'email_address'
p24
S'mark.metts@enron.com'
p25
sS'from_poi_to_this_person'
p26
I38
ssS'BAXTER JOHN C'
p27
(dp28
g3
I267102
sg4
g9
sg5
I1295738
sg7
I5634343
sg8
I6680544
sg10
I1200000
sg11
I3942714
sg12
g6
sg13
g6
sg14
I10623258
sg15
I11200
sg16
g9
sg17
g9
sg18
I2660303
sg19
g6
sg20
I00
sg21
g9
sg22
I-1386055
sg23
I1586055
sg24
g9
sg26
g9
ssS'ELLIOTT STEVEN'
p29
(dp30
g3
I170941
sg4
g9
sg5
g6
sg7
I211725
sg8
I4890344
sg10
I350000
sg11
I1788391
sg12
g6
sg13
g6
sg14
I6678735
sg15
I78552
sg16
g9
sg17
g9
sg18
I12961
sg19
g6
sg20
I00
sg21
g9
sg22
I-400729
sg23
g6
sg24
S'steven.elliott@enron.com'
p31
sg26
g9
ssS'CORDES WILLIAM R'
p32
(dp33
g3
g6
sg4
I764
sg5
g6
sg7
g9
sg8
I651850
sg10
g6
sg11
I386335
sg12
I58
sg13
g6
sg14
I1038185
sg15
g9
sg16
g9
sg17
I12
sg18
g9
sg19
I0
sg20
I00
sg21
g9
sg22
g9
sg23
g6
sg24
S'bill.cordes@enron.com'
p34
sg26
I10
ssS'HANNON KEVIN P'
p35
(dp36
g3
I243293
sg4
I1045
sg5
g6
sg7
I288682
sg8
I5538001
sg10
I1500000
sg11
I853064
sg12
I1035
sg13
g6
sg14
I6391065
sg15
I34039
sg16
g9
sg17
I32
sg18
I11350
sg19
I21
sg20
I01
sg21
g9
sg22
I-3117011
sg23
I1617011
sg24
S'kevin.hannon@enron.com'
p37
sg26
I32
ssS'MORDAUNT KRISTINA M'
p38
(dp39
g3
I267093
sg4
g9
sg5
g6
sg7
I628522
sg8
g9
sg10
I325000
sg11
I208510
sg12
g6
sg13
g6
sg14
I208510
sg15
I35018
sg16
g9
sg17
g9
sg18
I1411
sg19
g6
sg20
I00
sg21
g9
sg22
g9
sg23
g6
sg24
S'kristina.mordaunt@enron.com'
p40
sg26
g9
ssS'MEYER ROCKFORD G'
p41
(dp42
g3
g6
sg4
I232
sg5
I1848227
sg7
I1848227
sg8
I493489
sg10
g6
sg11
I462384
sg12
I22
sg13
g6
sg14
I955873
sg15
g9
sg16
g9
sg17
I28
sg18
g9
sg19
I0
sg20
I00
sg21
g9
sg22
g9
sg23
g6
sg24
S'rockford.meyer@enron.com'
p43
sg26
I0
ssS'MCMAHON JEFFREY'
p44
(dp45
g3
I370448
sg4
I2355
sg5
g6
sg7
I4099771
sg8
I1104054
sg10
I2600000
sg11
I558801
sg12
I2228
sg13
g6
sg14
I1662855
sg15
I137108
sg16
g9
sg17
I48
sg18
I297353
sg19
I26
sg20
I00
sg21
g9
sg22
g9
sg23
I694862
sg24
S'jeffrey.mcmahon@enron.com'
p46
sg26
I58
ssS'HORTON STANLEY C'
p47
(dp48
g3
g6
sg4
I2350
sg5
I3131860
sg7
I3131860
sg8
I5210569
sg10
g6
sg11
I2046079
sg12
I1074
sg13
g6
sg14
I7256648
sg15
g9
sg16
g9
sg17
I1073
sg18
g9
sg19
I15
sg20
I00
sg21
g9
sg22
g9
sg23
g6
sg24
S'stanley.horton@enron.com'
p49
sg26
I44
ssS'PIPER GREGORY F'
p50
(dp51
g3
I197091
sg4
I1238
sg5
I1130036
sg7
I1737629
sg8
I880290
sg10
I400000
sg11
I409554
sg12
I742
sg13
I-409554
sg14
I880290
sg15
I43057
sg16
g9
sg17
I222
sg18
I778
sg19
I48
sg20
I00
sg21
g9
sg22
I-33333
sg23
g6
sg24
S'greg.piper@enron.com'
p52
sg26
I61
ssS'HUMPHREY GENE E'
p53
(dp54
g3
I130724
sg4
I128
sg5
I2964506
sg7
I3100224
sg8
I2282768
sg10
g6
sg11
g9
sg12
I119
sg13
g6
sg14
I2282768
sg15
I4994
sg16
g9
sg17
I17
sg18
g9
sg19
I17
sg20
I00
sg21
g9
sg22
g9
sg23
g6
sg24
S'gene.humphrey@enron.com'
p55
sg26
I10
ssS'UMANOFF ADAM S'
p56
(dp57
g3
I288589
sg4
I111
sg5
g6
sg7
I1130461
sg8
g9
sg10
I788750
sg11
g9
sg12
I41
sg13
g6
sg14
g9
sg15
I53122
sg16
g9
sg17
I18
sg18
g9
sg19
I0
sg20
I00
sg21
g9
sg22
g9
sg23
g6
sg24
S'adam.umanoff@enron.com'
p58
sg26
I12
ssS'BLACHMAN JEREMY M'
p59
(dp60
g3
I248546
sg4
I2475
sg5
g6
sg7
I2014835
sg8
I765313
sg10
I850000
sg11
I189041
sg12
I2326
sg13
g6
sg14
I954354
sg15
I84208
sg16
g9
sg17
I14
sg18
I272
sg19
I2
sg20
I00
sg21
g9
sg22
g9
sg23
I831809
sg24
S'jeremy.blachman@enron.com'
p61
sg26
I25
ssS'SUNDE MARTIN'
p62
(dp63
g3
I257486
sg4
I2647
sg5
g6
sg7
I1545059
sg8
g9
sg10
I700000
sg11
I698920
sg12
I2565
sg13
g6
sg14
I698920
sg15
g9
sg16
g9
sg17
I38
sg18
I111122
sg19
I13
sg20
I00
sg21
g9
sg22
g9
sg23
I476451
sg24
S'marty.sunde@enron.com'
p64
sg26
I37
ssS'GIBBS DANA R'
p65
(dp66
g3
g6
sg4
I169
sg5
I504610
sg7
I966522
sg8
I2218275
sg10
g6
sg11
g9
sg12
I23
sg13
g6
sg14
I2218275
sg15
g9
sg16
g9
sg17
I12
sg18
g9
sg19
I0
sg20
I00
sg21
g9
sg22
g9
sg23
I461912
sg24
S'dana.gibbs@enron.com'
p67
sg26
I0
ssS'LOWRY CHARLES P'
p68
(dp69
g3
g6
sg4
g9
sg5
g6
sg7
g9
sg8
I372205
sg10
g6
sg11
I153686
sg12
g6
sg13
I-153686
sg14
I372205
sg15
g9
sg16
g9
sg17
g9
sg18
g9
sg19
g6
sg20
I00
sg21
g9
sg22
g9
sg23
g6
sg24
g9
sg26
g9
ssS'COLWELL WESLEY'
p70
(dp71
g3
I288542
sg4
I1758
sg5
I27610
sg7
I1490344
sg8
g9
sg10
I1200000
sg11
I698242
sg12
I1132
sg13
g6
sg14
I698242
sg15
I16514
sg16
g9
sg17
I40
sg18
I101740
sg19
I11
sg20
I01
sg21
g9
sg22
I-144062
sg23
g6
sg24
S'wes.colwell@enron.com'
p72
sg26
I240
ssS'MULLER MARK S'
p73
(dp74
g3
I251654
sg4
I136
sg5
I842924
sg7
I3202070
sg8
I1056320
sg10
I1100000
sg11
I360528
sg12
I114
sg13
g6
sg14
I1416848
sg15
g9
sg16
g9
sg17
I16
sg18
I947
sg19
I0
sg20
I00
sg21
g9
sg22
I-719000
sg23
I1725545
sg24
S's..muller@enron.com'
p75
sg26
I12
ssS'JACKSON CHARLENE R'
p76
(dp77
g3
I288558
sg4
I258
sg5
g6
sg7
I551174
sg8
I185063
sg10
I250000
sg11
I540672
sg12
I117
sg13
g6
sg14
I725735
sg15
I10181
sg16
g9
sg17
I56
sg18
I2435
sg19
I19
sg20
I00
sg21
g9
sg22
g9
sg23
g6
sg24
S'charlene.jackson@enron.com'
p78
sg26
I25
ssS'WESTFAHL RICHARD K'
p79
(dp80
g3
I63744
sg4
g9
sg5
g6
sg7
I762135
sg8
g9
sg10
g6
sg11
I384930
sg12
g6
sg13
g6
sg14
I384930
sg15
I51870
sg16
g9
sg17
g9
sg18
I401130
sg19
g6
sg20
I00
sg21
g9
sg22
I-10800
sg23
I256191
sg24
S'dick.westfahl@enron.com'
p81
sg26
g9
ssS'WALTERS GARETH W'
p82
(dp83
g3
g6
sg4
g9
sg5
I53625
sg7
I87410
sg8
I1030329
sg10
g6
sg11
g9
sg12
g6
sg13
g6
sg14
I1030329
sg15
I33785
sg16
g9
sg17
g9
sg18
g9
sg19
g6
sg20
I00
sg21
g9
sg22
g9
sg23
g6
sg24
g9
sg26
g9
ssS'WALLS JR ROBERT H'
p84
(dp85
g3
I357091
sg4
I671
sg5
g6
sg7
I1798780
sg8
I4346544
sg10
I850000
sg11
I1552453
sg12
I215
sg13
g6
sg14
I5898997
sg15
I50936
sg16
g9
sg17
I146
sg18
I2
sg19
I0
sg20
I00
sg21
g9
sg22
g9
sg23
I540751
sg24
S'rob.walls@enron.com'
p86
sg26
I17
ssS'KITCHEN LOUISE'
p87
(dp88
g3
I271442
sg4
I8305
sg5
g6
sg7
I3471141
sg8
I81042
sg10
I3100000
sg11
I466101
sg12
I3669
sg13
g6
sg14
I547143
sg15
I5774
sg16
g9
sg17
I1728
sg18
I93925
sg19
I194
sg20
I00
sg21
g9
sg22
g9
sg23
g6
sg24
S'louise.kitchen@enron.com'
p89
sg26
I251
ssS'CHAN RONNIE'
p90
(dp91
g3
g6
sg4
g9
sg5
g6
sg7
g9
sg8
g9
sg10
g6
sg11
I32460
sg12
g6
sg13
I-32460
sg14
g9
sg15
g9
sg16
g9
sg17
g9
sg18
g9
sg19
g6
sg20
I00
sg21
I98784
sg22
I-98784
sg23
g6
sg24
g9
sg26
g9
ssS'BELFER ROBERT'
p92
(dp93
g3
g6
sg4
g9
sg5
g6
sg7
I102500
sg8
I3285
sg10
g6
sg11
g9
sg12
g6
sg13
I44093
sg14
I-44093
sg15
g9
sg16
g9
sg17
g9
sg18
g9
sg19
g6
sg20
I00
sg21
I3285
sg22
g9
sg23
g6
sg24
g9
sg26
g9
ssS'SHANKMAN JEFFREY A'
p94
(dp95
g3
I304110
sg4
I3221
sg5
g6
sg7
I3038702
sg8
I1441898
sg10
I2000000
sg11
I630137
sg12
I1730
sg13
g6
sg14
I2072035
sg15
I178979
sg16
g9
sg17
I2681
sg18
I1191
sg19
I83
sg20
I00
sg21
g9
sg22
g9
sg23
I554422
sg24
S'jeffrey.shankman@enron.com'
p96
sg26
I94
ssS'WODRASKA JOHN'
p97
(dp98
g3
g6
sg4
g9
sg5
g6
sg7
I189583
sg8
g9
sg10
g6
sg11
g9
sg12
g6
sg13
g6
sg14
g9
sg15
g9
sg16
g9
sg17
g9
sg18
I189583
sg19
g6
sg20
I00
sg21
g9
sg22
g9
sg23
g6
sg24
S'john.wodraska@enron.com'
p99
sg26
g9
ssS'BERGSIEKER RICHARD P'
p100
(dp101
g3
I187922
sg4
I383
sg5
g6
sg7
I618850
sg8
g9
sg10
I250000
sg11
I659249
sg12
I233
sg13
g6
sg14
I659249
sg15
I59175
sg16
g9
sg17
I59
sg18
I427316
sg19
I0
sg20
I00
sg21
g9
sg22
I-485813
sg23
I180250
sg24
S'rick.bergsieker@enron.com'
p102
sg26
I4
ssS'URQUHART JOHN A'
p103
(dp104
g3
g6
sg4
g9
sg5
g6
sg7
I228656
sg8
g9
sg10
g6
sg11
g9
sg12
g6
sg13
g6
sg14
g9
sg15
I228656
sg16
g9
sg17
g9
sg18
g9
sg19
g6
sg20
I00
sg21
I36666
sg22
I-36666
sg23
g6
sg24
g9
sg26
g9
ssS'BIBI PHILIPPE A'
p105
(dp106
g3
I213625
sg4
I1607
sg5
g6
sg7
I2047593
sg8
I1465734
sg10
I1000000
sg11
I378082
sg12
I1336
sg13
g6
sg14
I1843816
sg15
I38559
sg16
g9
sg17
I40
sg18
I425688
sg19
I8
sg20
I00
sg21
g9
sg22
g9
sg23
I369721
sg24
S'philippe.bibi@enron.com'
p107
sg26
I23
ssS'RIEKER PAULA H'
p108
(dp109
g3
I249201
sg4
I1328
sg5
I214678
sg7
I1099100
sg8
I1635238
sg10
I700000
sg11
I283649
sg12
I1258
sg13
g6
sg14
I1918887
sg15
I33271
sg16
g9
sg17
I82
sg18
I1950
sg19
I48
sg20
I01
sg21
g9
sg22
I-100000
sg23
g6
sg24
S'paula.rieker@enron.com'
p110
sg26
I35
ssS'WHALEY DAVID A'
p111
(dp112
g3
g6
sg4
g9
sg5
g6
sg7
g9
sg8
I98718
sg10
g6
sg11
g9
sg12
g6
sg13
g6
sg14
I98718
sg15
g9
sg16
g9
sg17
g9
sg18
g9
sg19
g6
sg20
I00
sg21
g9
sg22
g9
sg23
g6
sg24
g9
sg26
g9
ssS'BECK SALLY W'
p113
(dp114
g3
I231330
sg4
I7315
sg5
g6
sg7
I969068
sg8
g9
sg10
I700000
sg11
I126027
sg12
I2639
sg13
g6
sg14
I126027
sg15
I37172
sg16
g9
sg17
I4343
sg18
I566
sg19
I386
sg20
I00
sg21
g9
sg22
g9
sg23
g6
sg24
S'sally.beck@enron.com'
p115
sg26
I144
ssS'HAUG DAVID L'
p116
(dp117
g3
g6
sg4
I573
sg5
g6
sg7
I475
sg8
g9
sg10
g6
sg11
I2217299
sg12
I471
sg13
g6
sg14
I2217299
sg15
I475
sg16
g9
sg17
I19
sg18
g9
sg19
I7
sg20
I00
sg21
g9
sg22
g9
sg23
g6
sg24
S'david.haug@enron.com'
p118
sg26
I4
ssS'ECHOLS JOHN B'
p119
(dp120
g3
I182245
sg4
g9
sg5
g6
sg7
I2692324
sg8
I601438
sg10
I200000
sg11
I407503
sg12
g6
sg13
g6
sg14
I1008941
sg15
I21530
sg16
g9
sg17
g9
sg18
I53775
sg19
g6
sg20
I00
sg21
g9
sg22
g9
sg23
I2234774
sg24
S'john.echols@enron.com'
p121
sg26
g9
ssS'MENDELSOHN JOHN'
p122
(dp123
g3
g6
sg4
g9
sg5
g6
sg7
I148
sg8
g9
sg10
g6
sg11
g9
sg12
g6
sg13
g6
sg14
g9
sg15
I148
sg16
g9
sg17
g9
sg18
g9
sg19
g6
sg20
I00
sg21
I103750
sg22
I-103750
sg23
g6
sg24
g9
sg26
g9
ssS'HICKERSON GARY J'
p124
(dp125
g3
I211788
sg4
I1320
sg5
g6
sg7
I2081796
sg8
g9
sg10
I1700000
sg11
I441096
sg12
I900
sg13
g6
sg14
I441096
sg15
I98849
sg16
g9
sg17
I27
sg18
I1936
sg19
I1
sg20
I00
sg21
g9
sg22
g9
sg23
g6
sg24
S'gary.hickerson@enron.com'
p126
sg26
I40
ssS'CLINE KENNETH W'
p127
(dp128
g3
g6
sg4
g9
sg5
g6
sg7
g9
sg8
g9
sg10
g6
sg11
I662086
sg12
g6
sg13
I-472568
sg14
I189518
sg15
g9
sg16
g9
sg17
g9
sg18
g9
sg19
g6
sg20
I00
sg21
g9
sg22
g9
sg23
g6
sg24
g9
sg26
g9
ssS'LEWIS RICHARD'
p129
(dp130
g3
g6
sg4
I952
sg5
g6
sg7
g9
sg8
I850477
sg10
g6
sg11
g9
sg12
I739
sg13
g6
sg14
I850477
sg15
g9
sg16
g9
sg17
I26
sg18
g9
sg19
I0
sg20
I00
sg21
g9
sg22
g9
sg23
g6
sg24
S'richard.lewis@enron.com'
p131
sg26
I10
ssS'HAYES ROBERT E'
p132
(dp133
g3
g6
sg4
I504
sg5
I7961
sg7
I7961
sg8
g9
sg10
g6
sg11
I151418
sg12
I50
sg13
g6
sg14
I151418
sg15
g9
sg16
g9
sg17
I12
sg18
g9
sg19
I0
sg20
I00
sg21
g9
sg22
g9
sg23
g6
sg24
S'robert.hayes@enron.com'
p134
sg26
I16
ssS'MCCARTY DANNY J'
p135
(dp136
g3
g6
sg4
I1433
sg5
g6
sg7
g9
sg8
I664375
sg10
g6
sg11
I94556
sg12
I508
sg13
g6
sg14
I758931
sg15
g9
sg16
g9
sg17
I215
sg18
g9
sg19
I2
sg20
I00
sg21
g9
sg22
g9
sg23
g6
sg24
S'danny.mccarty@enron.com'
p137
sg26
I25
ssS'KOPPER MICHAEL J'
p138
(dp139
g3
I224305
sg4
g9
sg5
g6
sg7
I2652612
sg8
g9
sg10
I800000
sg11
I985032
sg12
g6
sg13
g6
sg14
I985032
sg15
I118134
sg16
g9
sg17
g9
sg18
I907502
sg19
g6
sg20
I01
sg21
g9
sg22
g9
sg23
I602671
sg24
S'michael.kopper@enron.com'
p140
sg26
g9
ssS'LEFF DANIEL P'
p141
(dp142
g3
I273746
sg4
I2822
sg5
g6
sg7
I2664228
sg8
g9
sg10
I1000000
sg11
I360528
sg12
I2672
sg13
g6
sg14
I360528
sg15
g9
sg16
g9
sg17
I63
sg18
I3083
sg19
I14
sg20
I00
sg21
g9
sg22
g9
sg23
I1387399
sg24
S'dan.leff@enron.com'
p143
sg26
I67
ssS'LAVORATO JOHN J'
p144
(dp145
g3
I339288
sg4
I7259
sg5
g6
sg7
I10425757
sg8
I4158995
sg10
g6
sg11
I1008149
sg12
I3962
sg13
g6
sg14
I5167144
sg15
I49537
sg16
g9
sg17
I2585
sg18
I1552
sg19
g6
sg20
I00
sg21
g9
sg22
g9
sg23
I2035380
sg24
S'john.lavorato@enron.com'
p146
sg26
I528
ssS'BERBERIAN DAVID'
p147
(dp148
g3
I216582
sg4
g9
sg5
g6
sg7
I228474
sg8
I1624396
sg10
g6
sg11
I869220
sg12
g6
sg13
g6
sg14
I2493616
sg15
I11892
sg16
g9
sg17
g9
sg18
g9
sg19
g6
sg20
I00
sg21
g9
sg22
g9
sg23
g6
sg24
S'david.berberian@enron.com'
p149
sg26
g9
ssS'DETMERING TIMOTHY J'
p150
(dp151
g3
I210500
sg4
g9
sg5
I875307
sg7
I1204583
sg8
I2027865
sg10
I425000
sg11
I315068
sg12
g6
sg13
I-315068
sg14
I2027865
sg15
I52255
sg16
g9
sg17
g9
sg18
I1105
sg19
g6
sg20
I00
sg21
g9
sg22
I-775241
sg23
I415657
sg24
S'timothy.detmering@enron.com'
p152
sg26
g9
ssS'WAKEHAM JOHN'
p153
(dp154
g3
g6
sg4
g9
sg5
g6
sg7
I213071
sg8
g9
sg10
g6
sg11
g9
sg12
g6
sg13
g6
sg14
g9
sg15
I103773
sg16
g9
sg17
g9
sg18
g9
sg19
g6
sg20
I00
sg21
I109298
sg22
g9
sg23
g6
sg24
g9
sg26
g9
ssS'POWERS WILLIAM'
p155
(dp156
g3
g6
sg4
I653
sg5
g6
sg7
g9
sg8
g9
sg10
g6
sg11
g9
sg12
I12
sg13
g6
sg14
g9
sg15
g9
sg16
g9
sg17
I26
sg18
g9
sg19
I0
sg20
I00
sg21
I17500
sg22
I-17500
sg23
g6
sg24
S'ken.powers@enron.com'
p157
sg26
I0
ssS'GOLD JOSEPH'
p158
(dp159
g3
I272880
sg4
g9
sg5
g6
sg7
I2146973
sg8
I436515
sg10
I750000
sg11
I441096
sg12
g6
sg13
g6
sg14
I877611
sg15
g9
sg16
g9
sg17
g9
sg18
I819288
sg19
g6
sg20
I00
sg21
g9
sg22
g9
sg23
I304805
sg24
S'joe.gold@enron.com'
p160
sg26
g9
ssS'BANNANTINE JAMES M'
p161
(dp162
g3
g6
sg4
I566
sg5
g6
sg7
I916197
sg8
I4046157
sg10
g6
sg11
I1757552
sg12
I465
sg13
I-560222
sg14
I5243487
sg15
I56301
sg16
g9
sg17
I29
sg18
I864523
sg19
I0
sg20
I00
sg21
g9
sg22
I-5104
sg23
g6
sg24
S'james.bannantine@enron.com'
p163
sg26
I39
ssS'DUNCAN JOHN H'
p164
(dp165
g3
g6
sg4
g9
sg5
g6
sg7
I77492
sg8
I371750
sg10
g6
sg11
g9
sg12
g6
sg13
g6
sg14
I371750
sg15
g9
sg16
g9
sg17
g9
sg18
g9
sg19
g6
sg20
I00
sg21
I102492
sg22
I-25000
sg23
g6
sg24
g9
sg26
g9
ssS'SHAPIRO RICHARD S'
p166
(dp167
g3
I269076
sg4
I15149
sg5
g6
sg7
I1057548
sg8
I607837
sg10
I650000
sg11
I379164
sg12
g6
sg13
g6
sg14
I987001
sg15
I137767
sg16
g9
sg17
I1215
sg18
I705
sg19
I65
sg20
I00
sg21
g9
sg22
g9
sg23
g6
sg24
S'richard.shapiro@enron.com'
p168
sg26
I74
ssS'SHERRIFF JOHN R'
p169
(dp170
g3
I428780
sg4
I3187
sg5
g6
sg7
I4335388
sg8
I1835558
sg10
I1500000
sg11
I1293424
sg12
I2103
sg13
g6
sg14
I3128982
sg15
g9
sg16
g9
sg17
I92
sg18
I1852186
sg19
I23
sg20
I00
sg21
g9
sg22
g9
sg23
I554422
sg24
S'john.sherriff@enron.com'
p171
sg26
I28
ssS'SHELBY REX'
p172
(dp173
g3
I211844
sg4
I225
sg5
g6
sg7
I2003885
sg8
I1624396
sg10
I200000
sg11
I869220
sg12
I91
sg13
g6
sg14
I2493616
sg15
I22884
sg16
g9
sg17
I39
sg18
I1573324
sg19
I14
sg20
I01
sg21
g9
sg22
I-4167
sg23
g6
sg24
S'rex.shelby@enron.com'
p174
sg26
I13
ssS'LEMAISTRE CHARLES'
p175
(dp176
g3
g6
sg4
g9
sg5
g6
sg7
I87492
sg8
I412878
sg10
g6
sg11
g9
sg12
g6
sg13
g6
sg14
I412878
sg15
g9
sg16
g9
sg17
g9
sg18
g9
sg19
g6
sg20
I00
sg21
I112492
sg22
I-25000
sg23
g6
sg24
g9
sg26
g9
ssS'DEFFNER JOSEPH M'
p177
(dp178
g3
I206121
sg4
I714
sg5
g6
sg7
I1208649
sg8
I17378
sg10
I600000
sg11
I141833
sg12
I552
sg13
g6
sg14
I159211
sg15
I41626
sg16
g9
sg17
I74
sg18
I25553
sg19
I4
sg20
I00
sg21
g9
sg22
g9
sg23
I335349
sg24
S'joseph.deffner@enron.com'
p179
sg26
I115
ssS'KISHKILL JOSEPH G'
p180
(dp181
g3
I174246
sg4
g9
sg5
g6
sg7
I704896
sg8
g9
sg10
g6
sg11
I1034346
sg12
g6
sg13
g6
sg14
I1034346
sg15
I116335
sg16
g9
sg17
g9
sg18
I465357
sg19
g6
sg20
I00
sg21
g9
sg22
I-51042
sg23
g6
sg24
S'joe.kishkill@enron.com'
p182
sg26
g9
ssS'WHALLEY LAWRENCE G'
p183
(dp184
g3
I510364
sg4
I6019
sg5
g6
sg7
I4677574
sg8
I3282960
sg10
I3000000
sg11
I2796177
sg12
I3920
sg13
g6
sg14
I6079137
sg15
I57838
sg16
g9
sg17
I556
sg18
I301026
sg19
I24
sg20
I00
sg21
g9
sg22
g9
sg23
I808346
sg24
S'greg.whalley@enron.com'
p185
sg26
I186
ssS'MCCONNELL MICHAEL S'
p186
(dp187
g3
I365038
sg4
I3329
sg5
g6
sg7
I2101364
sg8
I1623010
sg10
I1100000
sg11
I1478269
sg12
I2189
sg13
g6
sg14
I3101279
sg15
I81364
sg16
g9
sg17
I2742
sg18
I540
sg19
I194
sg20
I00
sg21
g9
sg22
g9
sg23
I554422
sg24
S'mike.mcconnell@enron.com'
p188
sg26
I92
ssS'PIRO JIM'
p189
(dp190
g3
g6
sg4
I58
sg5
g6
sg7
g9
sg8
g9
sg10
g6
sg11
I47304
sg12
g6
sg13
g6
sg14
I47304
sg15
g9
sg16
g9
sg17
I16
sg18
g9
sg19
I1
sg20
I00
sg21
g9
sg22
g9
sg23
g6
sg24
S'jim.piro@enron.com'
p191
sg26
I0
ssS'DELAINEY DAVID W'
p192
(dp193
g3
I365163
sg4
I3093
sg5
g6
sg7
I4747979
sg8
I2291113
sg10
I3000000
sg11
I1323148
sg12
I2097
sg13
g6
sg14
I3614261
sg15
I86174
sg16
g9
sg17
I3069
sg18
I1661
sg19
g6
sg20
I01
sg21
g9
sg22
g9
sg23
I1294981
sg24
S'david.delainey@enron.com'
p194
sg26
I66
ssS'SULLIVAN-SHAKLOVITZ COLLEEN'
p195
(dp196
g3
I162779
sg4
g9
sg5
I181993
sg7
I999356
sg8
I1362375
sg10
I100000
sg11
g9
sg12
g6
sg13
g6
sg14
I1362375
sg15
g9
sg16
g9
sg17
g9
sg18
I162
sg19
g6
sg20
I00
sg21
g9
sg22
g9
sg23
I554422
sg24
g9
sg26
g9
ssS'WROBEL BRUCE'
p197
(dp198
g3
g6
sg4
g9
sg5
g6
sg7
g9
sg8
I139130
sg10
g6
sg11
g9
sg12
g6
sg13
g6
sg14
I139130
sg15
g9
sg16
g9
sg17
g9
sg18
g9
sg19
g6
sg20
I00
sg21
g9
sg22
g9
sg23
g6
sg24
g9
sg26
g9
ssS'LINDHOLM TOD A'
p199
(dp200
g3
I236457
sg4
g9
sg5
I204075
sg7
I875889
sg8
I2549361
sg10
I200000
sg11
I514847
sg12
g6
sg13
g6
sg14
I3064208
sg15
I57727
sg16
g9
sg17
g9
sg18
I2630
sg19
g6
sg20
I00
sg21
g9
sg22
g9
sg23
I175000
sg24
S'tod.lindholm@enron.com'
p201
sg26
g9
ssS'MEYER JEROME J'
p202
(dp203
g3
g6
sg4
g9
sg5
g6
sg7
I2151
sg8
g9
sg10
g6
sg11
g9
sg12
g6
sg13
g6
sg14
g9
sg15
I2151
sg16
g9
sg17
g9
sg18
g9
sg19
g6
sg20
I00
sg21
I38346
sg22
I-38346
sg23
g6
sg24
g9
sg26
g9
ssS'LAY KENNETH L'
p204
(dp205
g3
g6
sg4
I4273
sg5
I202911
sg7
I103559793
sg8
I34348384
sg10
g6
sg11
I14761694
sg12
I2411
sg13
g6
sg14
I49110078
sg15
I99832
sg16
I81525000
sg17
I36
sg18
I10359729
sg19
I16
sg20
I01
sg21
g9
sg22
I-300000
sg23
g6
sg24
S'kenneth.lay@enron.com'
p206
sg26
I123
ssS'BUTTS ROBERT H'
p207
(dp208
g3
I261516
sg4
g9
sg5
g6
sg7
I1271582
sg8
g9
sg10
I750000
sg11
I417619
sg12
g6
sg13
g6
sg14
I417619
sg15
I9410
sg16
g9
sg17
g9
sg18
I150656
sg19
g6
sg20
I00
sg21
g9
sg22
I-75000
sg23
I175000
sg24
S'bob.butts@enron.com'
p209
sg26
g9
ssS'OLSON CINDY K'
p210
(dp211
g3
I329078
sg4
I1184
sg5
I77716
sg7
I1321557
sg8
I1637034
sg10
I750000
sg11
I969729
sg12
I856
sg13
g6
sg14
I2606763
sg15
I63791
sg16
g9
sg17
I52
sg18
I972
sg19
I15
sg20
I00
sg21
g9
sg22
g9
sg23
I100000
sg24
S'cindy.olson@enron.com'
p212
sg26
I20
ssS'MCDONALD REBECCA'
p213
(dp214
g3
g6
sg4
I894
sg5
g6
sg7
g9
sg8
I757301
sg10
g6
sg11
I934065
sg12
I720
sg13
g6
sg14
I1691366
sg15
g9
sg16
g9
sg17
I13
sg18
g9
sg19
I1
sg20
I00
sg21
g9
sg22
g9
sg23
g6
sg24
S'rebecca.mcdonald@enron.com'
p215
sg26
I54
ssS'CUMBERLAND MICHAEL S'
p216
(dp217
g3
I184899
sg4
g9
sg5
g6
sg7
I807956
sg8
g9
sg10
I325000
sg11
I207940
sg12
g6
sg13
g6
sg14
I207940
sg15
I22344
sg16
g9
sg17
g9
sg18
I713
sg19
g6
sg20
I00
sg21
g9
sg22
g9
sg23
I275000
sg24
g9
sg26
g9
ssS'GAHN ROBERT S'
p218
(dp219
g3
I192008
sg4
g9
sg5
I73122
sg7
I900585
sg8
I83237
sg10
I509870
sg11
I235370
sg12
g6
sg13
g6
sg14
I318607
sg15
I50080
sg16
g9
sg17
g9
sg18
I76547
sg19
g6
sg20
I00
sg21
g9
sg22
I-1042
sg23
g6
sg24
g9
sg26
g9
ssS'MCCLELLAN GEORGE'
p220
(dp221
g3
I263413
sg4
I1744
sg5
g6
sg7
I1318763
sg8
I506765
sg10
I900000
sg11
I441096
sg12
I1469
sg13
g6
sg14
I947861
sg15
I228763
sg16
g9
sg17
I49
sg18
I51587
sg19
I0
sg20
I00
sg21
g9
sg22
I-125000
sg23
g6
sg24
S'george.mcclellan@enron.com'
p222
sg26
I52
ssS'HERMANN ROBERT J'
p223
(dp224
g3
I262663
sg4
g9
sg5
g6
sg7
I1297461
sg8
I187500
sg10
I700000
sg11
I480632
sg12
g6
sg13
g6
sg14
I668132
sg15
I48357
sg16
g9
sg17
g9
sg18
I416441
sg19
g6
sg20
I00
sg21
g9
sg22
I-280000
sg23
I150000
sg24
S'robert.hermann@enron.com'
p225
sg26
g9
ssS'SCRIMSHAW MATTHEW'
p226
(dp227
g3
g6
sg4
g9
sg5
g6
sg7
g9
sg8
I759557
sg10
g6
sg11
g9
sg12
g6
sg13
g6
sg14
I759557
sg15
g9
sg16
g9
sg17
g9
sg18
g9
sg19
g6
sg20
I00
sg21
g9
sg22
g9
sg23
g6
sg24
S'matthew.scrimshaw@enron.com'
p228
sg26
g9
ssS'GATHMANN WILLIAM D'
p229
(dp230
g3
g6
sg4
g9
sg5
g6
sg7
g9
sg8
I1753766
sg10
g6
sg11
I264013
sg12
g6
sg13
I-72419
sg14
I1945360
sg15
g9
sg16
g9
sg17
g9
sg18
g9
sg19
g6
sg20
I00
sg21
g9
sg22
g9
sg23
g6
sg24
g9
sg26
g9
ssS'HAEDICKE MARK E'
p231
(dp232
g3
I374125
sg4
I4009
sg5
I2157527
sg7
I3859065
sg8
I608750
sg10
I1150000
sg11
I524169
sg12
I1847
sg13
I-329825
sg14
I803094
sg15
I76169
sg16
g9
sg17
I1941
sg18
I52382
sg19
I61
sg20
I00
sg21
g9
sg22
I-934484
sg23
I983346
sg24
S'mark.haedicke@enron.com'
p233
sg26
I180
ssS'BOWEN JR RAYMOND M'
p234
(dp235
g3
I278601
sg4
I1858
sg5
g6
sg7
I2669589
sg8
g9
sg10
I1350000
sg11
I252055
sg12
I1593
sg13
g6
sg14
I252055
sg15
I65907
sg16
g9
sg17
I27
sg18
I1621
sg19
I15
sg20
I01
sg21
g9
sg22
I-833
sg23
I974293
sg24
S'raymond.bowen@enron.com'
p236
sg26
I140
ssS'GILLIS JOHN'
p237
(dp238
g3
g6
sg4
g9
sg5
g6
sg7
g9
sg8
I9803
sg10
g6
sg11
I75838
sg12
g6
sg13
g6
sg14
I85641
sg15
g9
sg16
g9
sg17
g9
sg18
g9
sg19
g6
sg20
I00
sg21
g9
sg22
g9
sg23
g6
sg24
g9
sg26
g9
ssS'FITZGERALD JAY L'
p239
(dp240
g3
I199157
sg4
I936
sg5
g6
sg7
I1414857
sg8
I664461
sg10
I350000
sg11
I956775
sg12
I723
sg13
g6
sg14
I1621236
sg15
I23870
sg16
g9
sg17
I16
sg18
I285414
sg19
I8
sg20
I00
sg21
g9
sg22
g9
sg23
I556416
sg24
S'jay.fitzgerald@enron.com'
p241
sg26
I1
ssS'MORAN MICHAEL P'
p242
(dp243
g3
g6
sg4
I672
sg5
g6
sg7
g9
sg8
I59539
sg10
g6
sg11
I161602
sg12
I127
sg13
g6
sg14
I221141
sg15
g9
sg16
g9
sg17
I19
sg18
g9
sg19
I0
sg20
I00
sg21
g9
sg22
g9
sg23
g6
sg24
S'michael.moran@enron.com'
p244
sg26
I0
ssS'REDMOND BRIAN L'
p245
(dp246
g3
I96840
sg4
I1671
sg5
g6
sg7
I111529
sg8
I7509039
sg10
g6
sg11
I381285
sg12
I1063
sg13
g6
sg14
I7890324
sg15
I14689
sg16
g9
sg17
I221
sg18
g9
sg19
I49
sg20
I00
sg21
g9
sg22
g9
sg23
g6
sg24
S'brian.redmond@enron.com'
p247
sg26
I204
ssS'BAZELIDES PHILIP J'
p248
(dp249
g3
I80818
sg4
g9
sg5
I684694
sg7
I860136
sg8
I1599641
sg10
g6
sg11
g9
sg12
g6
sg13
g6
sg14
I1599641
sg15
g9
sg16
g9
sg17
g9
sg18
I874
sg19
g6
sg20
I00
sg21
g9
sg22
g9
sg23
I93750
sg24
g9
sg26
g9
ssS'BELDEN TIMOTHY N'
p250
(dp251
g3
I213999
sg4
I7991
sg5
I2144013
sg7
I5501630
sg8
I953136
sg10
I5249999
sg11
I157569
sg12
g6
sg13
g6
sg14
I1110705
sg15
I17355
sg16
g9
sg17
I484
sg18
I210698
sg19
I108
sg20
I01
sg21
g9
sg22
I-2334434
sg23
g6
sg24
S'tim.belden@enron.com'
p252
sg26
I228
ssS'DURAN WILLIAM D'
p253
(dp254
g3
I210692
sg4
I904
sg5
g6
sg7
I2093263
sg8
I1451869
sg10
I750000
sg11
I189041
sg12
I599
sg13
g6
sg14
I1640910
sg15
I25785
sg16
g9
sg17
I12
sg18
I1568
sg19
I3
sg20
I00
sg21
g9
sg22
g9
sg23
I1105218
sg24
S'w.duran@enron.com'
p255
sg26
I106
ssS'THORN TERENCE H'
p256
(dp257
g3
I222093
sg4
I266
sg5
I16586
sg7
I911453
sg8
I4452476
sg10
g6
sg11
I365320
sg12
I73
sg13
g6
sg14
I4817796
sg15
I46145
sg16
g9
sg17
I41
sg18
I426629
sg19
I0
sg20
I00
sg21
g9
sg22
g9
sg23
I200000
sg24
S'terence.thorn@enron.com'
p258
sg26
I0
ssS'FASTOW ANDREW S'
p259
(dp260
g3
I440698
sg4
g9
sg5
g6
sg7
I2424083
sg8
g9
sg10
I1300000
sg11
I1794412
sg12
g6
sg13
g6
sg14
I1794412
sg15
I55921
sg16
g9
sg17
g9
sg18
I277464
sg19
g6
sg20
I01
sg21
g9
sg22
I-1386055
sg23
I1736055
sg24
S'andrew.fastow@enron.com'
p261
sg26
g9
ssS'FOY JOE'
p262
(dp263
g3
g6
sg4
I57
sg5
I181755
sg7
I181755
sg8
I343434
sg10
g6
sg11
g9
sg12
g6
sg13
g6
sg14
I343434
sg15
g9
sg16
g9
sg17
I13
sg18
g9
sg19
I0
sg20
I00
sg21
g9
sg22
g9
sg23
g6
sg24
S'tracy.foy@enron.com'
p264
sg26
I0
ssS'CALGER CHRISTOPHER F'
p265
(dp266
g3
I240189
sg4
I2598
sg5
g6
sg7
I1639297
sg8
g9
sg10
I1250000
sg11
I126027
sg12
I2188
sg13
g6
sg14
I126027
sg15
I35818
sg16
g9
sg17
I144
sg18
I486
sg19
I25
sg20
I01
sg21
g9
sg22
I-262500
sg23
I375304
sg24
S'christopher.calger@enron.com'
p267
sg26
I199
ssS'RICE KENNETH D'
p268
(dp269
g3
I420636
sg4
I905
sg5
g6
sg7
I505050
sg8
I19794175
sg10
I1750000
sg11
I2748364
sg12
I864
sg13
g6
sg14
I22542539
sg15
I46950
sg16
g9
sg17
I18
sg18
I174839
sg19
I4
sg20
I01
sg21
g9
sg22
I-3504386
sg23
I1617011
sg24
S'ken.rice@enron.com'
p270
sg26
I42
ssS'KAMINSKI WINCENTY J'
p271
(dp272
g3
I275101
sg4
I4607
sg5
g6
sg7
I1086821
sg8
I850010
sg10
I400000
sg11
I126027
sg12
I583
sg13
g6
sg14
I976037
sg15
I83585
sg16
g9
sg17
I14368
sg18
I4669
sg19
I171
sg20
I00
sg21
g9
sg22
g9
sg23
I323466
sg24
S'vince.kaminski@enron.com'
p273
sg26
I41
ssS'COX DAVID'
p274
(dp275
g3
I314288
sg4
I102
sg5
g6
sg7
I1101393
sg8
I117551
sg10
I800000
sg11
I378082
sg12
I71
sg13
g6
sg14
I495633
sg15
I27861
sg16
g9
sg17
I33
sg18
I494
sg19
I4
sg20
I00
sg21
g9
sg22
I-41250
sg23
g6
sg24
S'chip.cox@enron.com'
p276
sg26
I0
ssS'OVERDYKE JR JERE C'
p277
(dp278
g3
I94941
sg4
g9
sg5
g6
sg7
I249787
sg8
I5266578
sg10
g6
sg11
I2041016
sg12
g6
sg13
g6
sg14
I7307594
sg15
I18834
sg16
g9
sg17
g9
sg18
I176
sg19
g6
sg20
I00
sg21
g9
sg22
g9
sg23
I135836
sg24
S'jere.overdyke@enron.com'
p279
sg26
g9
ssS'PEREIRA PAULO V. FERRAZ'
p280
(dp281
g3
g6
sg4
g9
sg5
g6
sg7
I27942
sg8
g9
sg10
g6
sg11
g9
sg12
g6
sg13
g6
sg14
g9
sg15
I27942
sg16
g9
sg17
g9
sg18
g9
sg19
g6
sg20
I00
sg21
I101250
sg22
I-101250
sg23
g6
sg24
g9
sg26
g9
ssS'STABLER FRANK'
p282
(dp283
g3
I239502
sg4
g9
sg5
g6
sg7
I1112087
sg8
g9
sg10
I500000
sg11
I511734
sg12
g6
sg13
g6
sg14
I511734
sg15
I16514
sg16
g9
sg17
g9
sg18
I356071
sg19
g6
sg20
I00
sg21
g9
sg22
g9
sg23
g6
sg24
S'frank.stabler@enron.com'
p284
sg26
g9
ssS'SKILLING JEFFREY K'
p285
(dp286
g3
g6
sg4
I3627
sg5
g6
sg7
I8682716
sg8
I19250000
sg10
I5600000
sg11
I6843672
sg12
I2042
sg13
g6
sg14
I26093672
sg15
I29336
sg16
g9
sg17
I108
sg18
I22122
sg19
I30
sg20
I01
sg21
g9
sg22
g9
sg23
I1920000
sg24
S'jeff.skilling@enron.com'
p287
sg26
I88
ssS'BLAKE JR. NORMAN P'
p288
(dp289
g3
g6
sg4
g9
sg5
g6
sg7
I1279
sg8
g9
sg10
g6
sg11
g9
sg12
g6
sg13
g6
sg14
g9
sg15
I1279
sg16
g9
sg17
g9
sg18
g9
sg19
g6
sg20
I00
sg21
I113784
sg22
I-113784
sg23
g6
sg24
g9
sg26
g9
ssS'SHERRICK JEFFREY B'
p290
(dp291
g3
g6
sg4
I613
sg5
g6
sg7
g9
sg8
I1426469
sg10
g6
sg11
I405999
sg12
I583
sg13
g6
sg14
I1832468
sg15
g9
sg16
g9
sg17
I25
sg18
g9
sg19
I18
sg20
I00
sg21
g9
sg22
g9
sg23
g6
sg24
S'jeffrey.sherrick@enron.com'
p292
sg26
I39
ssS'PRENTICE JAMES'
p293
(dp294
g3
g6
sg4
g9
sg5
I564348
sg7
I564348
sg8
I886231
sg10
g6
sg11
I208809
sg12
g6
sg13
g6
sg14
I1095040
sg15
g9
sg16
g9
sg17
g9
sg18
g9
sg19
g6
sg20
I00
sg21
g9
sg22
g9
sg23
g6
sg24
S'james.prentice@enron.com'
p295
sg26
g9
ssS'GRAY RODNEY'
p296
(dp297
g3
g6
sg4
g9
sg5
I93585
sg7
I1146658
sg8
g9
sg10
g6
sg11
g9
sg12
g6
sg13
g6
sg14
g9
sg15
g9
sg16
g9
sg17
g9
sg18
I680833
sg19
g6
sg20
I00
sg21
g9
sg22
g9
sg23
I365625
sg24
g9
sg26
g9
ssS'PICKERING MARK R'
p298
(dp299
g3
I655037
sg4
I898
sg5
g6
sg7
I1386690
sg8
I28798
sg10
I300000
sg11
g9
sg12
I728
sg13
g6
sg14
I28798
sg15
I31653
sg16
I400000
sg17
I67
sg18
g9
sg19
I0
sg20
I00
sg21
g9
sg22
g9
sg23
g6
sg24
S'mark.pickering@enron.com'
p300
sg26
I7
ssS'NOLES JAMES L'
p301
(dp302
g3
g6
sg4
g9
sg5
I774401
sg7
I774401
sg8
g9
sg10
g6
sg11
I463261
sg12
g6
sg13
I-94556
sg14
I368705
sg15
g9
sg16
g9
sg17
g9
sg18
g9
sg19
g6
sg20
I00
sg21
g9
sg22
g9
sg23
g6
sg24
g9
sg26
g9
ssS'KEAN STEVEN J'
p303
(dp304
g3
I404338
sg4
I12754
sg5
g6
sg7
I1747522
sg8
I2022048
sg10
I1000000
sg11
I4131594
sg12
I3639
sg13
g6
sg14
I6153642
sg15
I41953
sg16
g9
sg17
I6759
sg18
I1231
sg19
I387
sg20
I00
sg21
g9
sg22
g9
sg23
I300000
sg24
S'steven.kean@enron.com'
p305
sg26
I140
ssS'FOWLER PEGGY'
p306
(dp307
g3
g6
sg4
I517
sg5
g6
sg7
g9
sg8
I1324578
sg10
g6
sg11
I560170
sg12
I10
sg13
g6
sg14
I1884748
sg15
g9
sg16
g9
sg17
I36
sg18
g9
sg19
I0
sg20
I00
sg21
g9
sg22
g9
sg23
g6
sg24
S'kulvinder.fowler@enron.com'
p308
sg26
I0
ssS'WASAFF GEORGE'
p309
(dp310
g3
I259996
sg4
I400
sg5
I831299
sg7
I1034395
sg8
I1668260
sg10
I325000
sg11
I388167
sg12
I337
sg13
g6
sg14
I2056427
sg15
g9
sg16
g9
sg17
I30
sg18
I1425
sg19
I7
sg20
I00
sg21
g9
sg22
I-583325
sg23
I200000
sg24
S'george.wasaff@enron.com'
p311
sg26
I22
ssS'WHITE JR THOMAS E'
p312
(dp313
g3
I317543
sg4
g9
sg5
g6
sg7
I1934359
sg8
I1297049
sg10
I450000
sg11
I13847074
sg12
g6
sg13
g6
sg14
I15144123
sg15
I81353
sg16
g9
sg17
g9
sg18
I1085463
sg19
g6
sg20
I00
sg21
g9
sg22
g9
sg23
g6
sg24
S'thomas.white@enron.com'
p314
sg26
g9
ssS'CHRISTODOULOU DIOMEDES'
p315
(dp316
g3
g6
sg4
g9
sg5
g6
sg7
g9
sg8
I5127155
sg10
g6
sg11
I950730
sg12
g6
sg13
g6
sg14
I6077885
sg15
g9
sg16
g9
sg17
g9
sg18
g9
sg19
g6
sg20
I00
sg21
g9
sg22
g9
sg23
g6
sg24
S'diomedes.christodoulou@enron.com'
p317
sg26
g9
ssS'ALLEN PHILLIP K'
p318
(dp319
g3
I201955
sg4
I2902
sg5
I2869717
sg7
I4484442
sg8
I1729541
sg10
I4175000
sg11
I126027
sg12
I1407
sg13
I-126027
sg14
I1729541
sg15
I13868
sg16
g9
sg17
I2195
sg18
I152
sg19
I65
sg20
I00
sg21
g9
sg22
I-3081055
sg23
I304805
sg24
S'phillip.allen@enron.com'
p320
sg26
I47
ssS'SHARP VICTORIA T'
p321
(dp322
g3
I248146
sg4
I3136
sg5
I187469
sg7
I1576511
sg8
I281073
sg10
I600000
sg11
I213063
sg12
I2477
sg13
g6
sg14
I494136
sg15
I116337
sg16
g9
sg17
I136
sg18
I2401
sg19
I6
sg20
I00
sg21
g9
sg22
g9
sg23
I422158
sg24
S'vicki.sharp@enron.com'
p323
sg26
I24
ssS'JAEDICKE ROBERT'
p324
(dp325
g3
g6
sg4
g9
sg5
g6
sg7
I83750
sg8
I431750
sg10
g6
sg11
I44093
sg12
g6
sg13
I-44093
sg14
I431750
sg15
g9
sg16
g9
sg17
g9
sg18
g9
sg19
g6
sg20
I00
sg21
I108750
sg22
I-25000
sg23
g6
sg24
g9
sg26
g9
ssS'WINOKUR JR. HERBERT S'
p326
(dp327
g3
g6
sg4
g9
sg5
g6
sg7
I84992
sg8
g9
sg10
g6
sg11
g9
sg12
g6
sg13
g6
sg14
g9
sg15
I1413
sg16
g9
sg17
g9
sg18
g9
sg19
g6
sg20
I00
sg21
I108579
sg22
I-25000
sg23
g6
sg24
g9
sg26
g9
ssS'BROWN MICHAEL'
p328
(dp329
g3
g6
sg4
I1486
sg5
g6
sg7
I49288
sg8
g9
sg10
g6
sg11
g9
sg12
I761
sg13
g6
sg14
g9
sg15
I49288
sg16
g9
sg17
I41
sg18
g9
sg19
I1
sg20
I00
sg21
g9
sg22
g9
sg23
g6
sg24
S'michael.brown@enron.com'
p330
sg26
I13
ssS'BADUM JAMES P'
p331
(dp332
g3
g6
sg4
g9
sg5
I178980
sg7
I182466
sg8
I257817
sg10
g6
sg11
g9
sg12
g6
sg13
g6
sg14
I257817
sg15
I3486
sg16
g9
sg17
g9
sg18
g9
sg19
g6
sg20
I00
sg21
g9
sg22
g9
sg23
g6
sg24
g9
sg26
g9
ssS'HUGHES JAMES A'
p333
(dp334
g3
g6
sg4
I719
sg5
g6
sg7
g9
sg8
I754966
sg10
g6
sg11
I363428
sg12
I589
sg13
g6
sg14
I1118394
sg15
g9
sg16
g9
sg17
I34
sg18
g9
sg19
I5
sg20
I00
sg21
g9
sg22
g9
sg23
g6
sg24
S'james.hughes@enron.com'
p335
sg26
I35
ssS'REYNOLDS LAWRENCE'
p336
(dp337
g3
I76399
sg4
g9
sg5
I51365
sg7
I394475
sg8
I4160672
sg10
I100000
sg11
I201483
sg12
g6
sg13
I-140264
sg14
I4221891
sg15
I8409
sg16
g9
sg17
g9
sg18
I202052
sg19
g6
sg20
I00
sg21
g9
sg22
I-200000
sg23
I156250
sg24
g9
sg26
g9
ssS'DIMICHELE RICHARD G'
p338
(dp339
g3
I262788
sg4
g9
sg5
g6
sg7
I2368151
sg8
I8191755
sg10
I1000000
sg11
I126027
sg12
g6
sg13
g6
sg14
I8317782
sg15
I35812
sg16
g9
sg17
g9
sg18
I374689
sg19
g6
sg20
I00
sg21
g9
sg22
g9
sg23
I694862
sg24
S'richard.dimichele@enron.com'
p340
sg26
g9
ssS'BHATNAGAR SANJAY'
p341
(dp342
g3
g6
sg4
I523
sg5
g6
sg7
I15456290
sg8
I2604490
sg10
g6
sg11
I-2604490
sg12
I463
sg13
g6
sS'total_stock_value'
p343
S'NaN'
p344
sg15
g9
sg16
g9
sg17
I29
sg18
I137864
sg19
I1
sg20
I00
sg21
I137864
sg22
g9
sg23
g6
sg24
S'sanjay.bhatnagar@enron.com'
p345
sg26
I0
ssS'CARTER REBECCA C'
p346
(dp347
g3
I261809
sg4
I312
sg5
g6
sg7
I477557
sg8
g9
sg10
I300000
sg11
I307301
sg12
I196
sg13
I-307301
sg14
g9
sg15
g9
sg16
g9
sg17
I15
sg18
I540
sg19
I7
sg20
I00
sg21
g9
sg22
I-159792
sg23
I75000
sg24
S'rebecca.carter@enron.com'
p348
sg26
I29
ssS'BUCHANAN HAROLD G'
p349
(dp350
g3
I248017
sg4
I1088
sg5
g6
sg7
I1054637
sg8
I825464
sg10
I500000
sg11
I189041
sg12
I23
sg13
g6
sg14
I1014505
sg15
I600
sg16
g9
sg17
I125
sg18
I1215
sg19
I0
sg20
I00
sg21
g9
sg22
g9
sg23
I304805
sg24
S'john.buchanan@enron.com'
p351
sg26
I0
ssS'YEAP SOON'
p352
(dp353
g3
g6
sg4
g9
sg5
g6
sg7
I55097
sg8
I192758
sg10
g6
sg11
g9
sg12
g6
sg13
g6
sg14
I192758
sg15
I55097
sg16
g9
sg17
g9
sg18
g9
sg19
g6
sg20
I00
sg21
g9
sg22
g9
sg23
g6
sg24
g9
sg26
g9
ssS'MURRAY JULIA H'
p354
(dp355
g3
I229284
sg4
I2192
sg5
g6
sg7
I812194
sg8
I400478
sg10
I400000
sg11
I196983
sg12
I395
sg13
g6
sg14
I597461
sg15
I57580
sg16
g9
sg17
I45
sg18
I330
sg19
I2
sg20
I00
sg21
g9
sg22
g9
sg23
I125000
sg24
S'julia.murray@enron.com'
p356
sg26
I11
ssS'GARLAND C KEVIN'
p357
(dp358
g3
I231946
sg4
I209
sg5
g6
sg7
I1566469
sg8
I636246
sg10
I850000
sg11
I259907
sg12
I178
sg13
g6
sg14
I896153
sg15
I48405
sg16
g9
sg17
I44
sg18
I60814
sg19
I27
sg20
I00
sg21
g9
sg22
g9
sg23
I375304
sg24
S'kevin.garland@enron.com'
p359
sg26
I10
ssS'DODSON KEITH'
p360
(dp361
g3
I221003
sg4
I176
sg5
g6
sg7
I319941
sg8
g9
sg10
g6
sg11
g9
sg12
I114
sg13
g6
sg14
g9
sg15
I28164
sg16
g9
sg17
I14
sg18
I774
sg19
I3
sg20
I00
sg21
g9
sg22
g9
sg23
g6
sg24
S'keith.dodson@enron.com'
p362
sg26
I10
ssS'YEAGER F SCOTT'
p363
(dp364
g3
I158403
sg4
g9
sg5
g6
sg7
I360300
sg8
I8308552
sg10
g6
sg11
I3576206
sg12
g6
sg13
g6
sg14
I11884758
sg15
I53947
sg16
g9
sg17
g9
sg18
I147950
sg19
g6
sg20
I01
sg21
g9
sg22
g9
sg23
g6
sg24
S'scott.yeager@enron.com'
p365
sg26
g9
ssS'HIRKO JOSEPH'
p366
(dp367
g3
g6
sg4
g9
sg5
I10259
sg7
I91093
sg8
I30766064
sg10
g6
sg11
g9
sg12
g6
sg13
g6
sg14
I30766064
sg15
I77978
sg16
g9
sg17
g9
sg18
I2856
sg19
g6
sg20
I01
sg21
g9
sg22
g9
sg23
g6
sg24
S'joe.hirko@enron.com'
p368
sg26
g9
ssS'DIETRICH JANET R'
p369
(dp370
g3
I250100
sg4
I2572
sg5
g6
sg7
I1410464
sg8
I1550019
sg10
I600000
sg11
I315068
sg12
I1902
sg13
g6
sg14
I1865087
sg15
I3475
sg16
g9
sg17
I63
sg18
I473
sg19
I14
sg20
I00
sg21
g9
sg22
g9
sg23
I556416
sg24
S'janet.dietrich@enron.com'
p371
sg26
I305
ssS'DERRICK JR. JAMES V'
p372
(dp373
g3
I492375
sg4
I2181
sg5
g6
sg7
I550981
sg8
I8831913
sg10
I800000
sg11
I1787380
sg12
I1401
sg13
g6
sg14
I8831913
sg15
I51124
sg16
g9
sg17
I909
sg18
I7482
sg19
I20
sg20
I00
sg21
g9
sg22
I-1284000
sg23
I484000
sg24
S'james.derrick@enron.com'
p374
sg26
I64
ssS'FREVERT MARK A'
p375
(dp376
g3
I1060932
sg4
I3275
sg5
g6
sg7
I17252530
sg8
I10433518
sg10
I2000000
sg11
I4188667
sg12
I2979
sg13
g6
sg14
I14622185
sg15
I86987
sg16
I2000000
sg17
I21
sg18
I7427621
sg19
I6
sg20
I00
sg21
g9
sg22
I-3367011
sg23
I1617011
sg24
S'mark.frevert@enron.com'
p377
sg26
I242
ssS'PAI LOU L'
p378
(dp379
g3
I261879
sg4
g9
sg5
g6
sg7
I3123383
sg8
I15364167
sg10
I1000000
sg11
I8453763
sg12
g6
sg13
g6
sg14
I23817930
sg15
I32047
sg16
g9
sg17
g9
sg18
I1829457
sg19
g6
sg20
I00
sg21
g9
sg22
g9
sg23
g6
sg24
S'lou.pai@enron.com'
p380
sg26
g9
ssS'BAY FRANKLIN R'
p381
(dp382
g3
I239671
sg4
g9
sg5
I260455
sg7
I827696
sg8
g9
sg10
I400000
sg11
I145796
sg12
g6
sg13
I-82782
sg14
I63014
sg15
I129142
sg16
g9
sg17
g9
sg18
I69
sg19
g6
sg20
I00
sg21
g9
sg22
I-201641
sg23
g6
sg24
S'frank.bay@enron.com'
p383
sg26
g9
ssS'HAYSLETT RODERICK J'
p384
(dp385
g3
g6
sg4
I2649
sg5
g6
sg7
g9
sg8
g9
sg10
g6
sg11
I346663
sg12
I571
sg13
g6
sg14
I346663
sg15
g9
sg16
g9
sg17
I1061
sg18
g9
sg19
I38
sg20
I00
sg21
g9
sg22
g9
sg23
g6
sg24
S'rod.hayslett@enron.com'
p386
sg26
I35
ssS'FUGH JOHN L'
p387
(dp388
g3
g6
sg4
g9
sg5
I50591
sg7
I50591
sg8
I176378
sg10
g6
sg11
g9
sg12
g6
sg13
g6
sg14
I176378
sg15
g9
sg16
g9
sg17
g9
sg18
g9
sg19
g6
sg20
I00
sg21
g9
sg22
g9
sg23
g6
sg24
g9
sg26
g9
ssS'FALLON JAMES B'
p389
(dp390
g3
I304588
sg4
I1755
sg5
g6
sg7
I3676340
sg8
I940257
sg10
I2500000
sg11
I1392142
sg12
I1604
sg13
g6
sg14
I2332399
sg15
I95924
sg16
g9
sg17
I75
sg18
I401481
sg19
I37
sg20
I00
sg21
g9
sg22
g9
sg23
I374347
sg24
S'jim.fallon@enron.com'
p391
sg26
I42
ssS'KOENIG MARK E'
p392
(dp393
g3
I309946
sg4
I2374
sg5
g6
sg7
I1587421
sg8
I671737
sg10
I700000
sg11
I1248318
sg12
I2271
sg13
g6
sg14
I1920055
sg15
I127017
sg16
g9
sg17
I61
sg18
I150458
sg19
I15
sg20
I01
sg21
g9
sg22
g9
sg23
I300000
sg24
S'mark.koenig@enron.com'
p394
sg26
I53
ssS'SAVAGE FRANK'
p395
(dp396
g3
g6
sg4
g9
sg5
g6
sg7
I3750
sg8
g9
sg10
g6
sg11
g9
sg12
g6
sg13
g6
sg14
g9
sg15
g9
sg16
g9
sg17
g9
sg18
g9
sg19
g6
sg20
I00
sg21
I125034
sg22
I-121284
sg23
g6
sg24
g9
sg26
g9
ssS'IZZO LAWRENCE L'
p397
(dp398
g3
I85274
sg4
I496
sg5
g6
sg7
I1979596
sg8
I2165172
sg10
g6
sg11
I3654808
sg12
I437
sg13
g6
sg14
I5819980
sg15
I28093
sg16
g9
sg17
I19
sg18
I1553729
sg19
I5
sg20
I00
sg21
g9
sg22
g9
sg23
I312500
sg24
S'larry.izzo@enron.com'
p399
sg26
I28
ssS'TILNEY ELIZABETH A'
p400
(dp401
g3
I247338
sg4
I460
sg5
g6
sg7
I399393
sg8
I591250
sg10
I300000
sg11
I576792
sg12
I379
sg13
g6
sg14
I1168042
sg15
g9
sg16
g9
sg17
I19
sg18
I152055
sg19
I11
sg20
I00
sg21
g9
sg22
I-575000
sg23
I275000
sg24
S'elizabeth.tilney@enron.com'
p402
sg26
I10
ssS'MARTIN AMANDA K'
p403
(dp404
g3
I349487
sg4
I1522
sg5
I85430
sg7
I8407016
sg8
I2070306
sg10
g6
sg11
g9
sg12
I477
sg13
g6
sg14
I2070306
sg15
I8211
sg16
g9
sg17
I230
sg18
I2818454
sg19
I0
sg20
I00
sg21
g9
sg22
g9
sg23
g6
sg24
S'a..martin@enron.com'
p405
sg26
I8
ssS'BUY RICHARD B'
p406
(dp407
g3
I330546
sg4
I3523
sg5
I649584
sg7
I2355702
sg8
I2542813
sg10
I900000
sg11
I901657
sg12
I2333
sg13
g6
sg14
I3444470
sg15
g9
sg16
g9
sg17
I1053
sg18
I400572
sg19
I71
sg20
I00
sg21
g9
sg22
I-694862
sg23
I769862
sg24
S'rick.buy@enron.com'
p408
sg26
I156
ssS'GRAMM WENDY L'
p409
(dp410
g3
g6
sg4
g9
sg5
g6
sg7
I119292
sg8
g9
sg10
g6
sg11
g9
sg12
g6
sg13
g6
sg14
g9
sg15
g9
sg16
g9
sg17
g9
sg18
g9
sg19
g6
sg20
I00
sg21
I119292
sg22
g9
sg23
g6
sg24
g9
sg26
g9
ssS'CAUSEY RICHARD A'
p411
(dp412
g3
I415189
sg4
I1892
sg5
g6
sg7
I1868758
sg8
g9
sg10
I1000000
sg11
I2502063
sg12
I1585
sg13
g6
sg14
I2502063
sg15
I30674
sg16
g9
sg17
I49
sg18
I307895
sg19
I12
sg20
I01
sg21
g9
sg22
I-235000
sg23
I350000
sg24
S'richard.causey@enron.com'
p413
sg26
I58
ssS'TAYLOR MITCHELL S'
p414
(dp415
g3
I265214
sg4
I533
sg5
I227449
sg7
I1092663
sg8
I3181250
sg10
I600000
sg11
I563798
sg12
I300
sg13
g6
sg14
I3745048
sg15
g9
sg16
g9
sg17
I29
sg18
g9
sg19
I0
sg20
I00
sg21
g9
sg22
g9
sg23
g6
sg24
S'mitchell.taylor@enron.com'
p416
sg26
I0
ssS'DONAHUE JR JEFFREY M'
p417
(dp418
g3
I278601
sg4
I865
sg5
g6
sg7
I875760
sg8
I765920
sg10
I800000
sg11
I315068
sg12
I772
sg13
g6
sg14
I1080988
sg15
I96268
sg16
g9
sg17
I22
sg18
I891
sg19
I11
sg20
I00
sg21
g9
sg22
I-300000
sg23
g6
sg24
S'jeff.donahue@enron.com'
p419
sg26
I188
ssS'GLISAN JR BEN F'
p420
(dp421
g3
I274975
sg4
I873
sg5
g6
sg7
I1272284
sg8
I384728
sg10
I600000
sg11
I393818
sg12
I874
sg13
g6
sg14
I778546
sg15
I125978
sg16
g9
sg17
I16
sg18
I200308
sg19
I6
sg20
I01
sg21
g9
sg22
g9
sg23
g6
sg24
S'ben.glisan@enron.com'
p422
sg26
I52
ss.