(lp0
S'poi'
p1
aS'salary'
p2
aS'bonus'
p3
aS'deferral_payments'
p4
aS'restricted_stock_deferred'
p5
aS'long_term_incentive'
p6
aS'from_this_person_to_poi'
p7
aS'shared_receipt_with_poi'
p8
aS'from_poi_ratio'
p9
aS'to_poi_ratio'
p10
a.