(lp0
S'poi'
p1
aS'salary'
p2
aS'bonus'
p3
aS'deferral_payments'
p4
aS'restricted_stock_deferred'
p5
aS'long_term_incentive'
p6
aS'restricted_stock'
p7
aS'from_this_person_to_poi'
p8
aS'shared_receipt_with_poi'
p9
a.